target datalayout = "e-m:e-p270:32:32-p271:32:32-p272:64:64-i64:64-i128:128-f80:128-n8:16:32:64-S128"
target triple = "x86_64-pc-linux-gnu"

%struct.timeval = type { i64, i64 }
%struct.fd_set = type { [16 x i64] }

@readtimeout = dso_local global i64 0, align 8
@.str.4 = private unnamed_addr constant [37 x i8] c"Timed out while reading clamd reply\0A\00", align 1
@.str.5 = private unnamed_addr constant [45 x i8] c"Connection closed while reading from socket\0A\00", align 1
@.str.6 = private unnamed_addr constant [41 x i8] c"recv failed after successful select: %s\0A\00", align 1
@.str.7 = private unnamed_addr constant [27 x i8] c"Overlong reply from clamd\0A\00", align 1
@.str.8 = private unnamed_addr constant [19 x i8] c"malloc(%d) failed\0A\00", align 1

; Function Attrs: nounwind uwtable
define dso_local ptr @nc_recv(i32 noundef %0) #0 {
  %2 = alloca ptr, align 8
  %3 = alloca i32, align 4
  %4 = alloca [128 x i8], align 16
  %5 = alloca ptr, align 8
  %6 = alloca i64, align 8
  %7 = alloca i64, align 8
  %8 = alloca %struct.timeval, align 8
  %9 = alloca %struct.fd_set, align 8
  %10 = alloca i32, align 4
  %11 = alloca i32, align 4
  %12 = alloca i32, align 4
  %13 = alloca ptr, align 8
  %14 = alloca [256 x i8], align 16
  store i32 %0, ptr %3, align 4
  store ptr null, ptr %5, align 8
  %15 = call i64 @time(ptr noundef null) #8
  %16 = load i64, ptr @readtimeout, align 8
  %17 = add nsw i64 %15, %16
  store i64 %17, ptr %7, align 8
  store i32 0, ptr %11, align 4
  br label %18

18:                                               ; preds = %135, %103, %79, %1
  %19 = call i64 @time(ptr noundef null) #8
  store i64 %19, ptr %6, align 8
  %20 = load i64, ptr %6, align 8
  %21 = load i64, ptr %7, align 8
  %22 = icmp sge i64 %20, %21
  br i1 %22, label %23, label %27

23:                                               ; preds = %18
  %24 = call i32 (i32, ptr, ...) @logg(i32 noundef 5, ptr noundef @.str.4)
  %25 = load i32, ptr %3, align 4
  %26 = call i32 @close(i32 noundef %25)
  store ptr null, ptr %2, align 8
  br label %158

27:                                               ; preds = %18
  %28 = load i64, ptr %7, align 8
  %29 = load i64, ptr %6, align 8
  %30 = sub nsw i64 %28, %29
  %31 = getelementptr inbounds %struct.timeval, ptr %8, i32 0, i32 0
  store i64 %30, ptr %31, align 8
  %32 = getelementptr inbounds %struct.timeval, ptr %8, i32 0, i32 1
  store i64 0, ptr %32, align 8
  br label %33

33:                                               ; preds = %27
  store ptr %9, ptr %13, align 8
  store i32 0, ptr %12, align 4
  br label %34

34:                                               ; preds = %44, %33
  %35 = load i32, ptr %12, align 4
  %36 = zext i32 %35 to i64
  %37 = icmp ult i64 %36, 16
  br i1 %37, label %38, label %47

38:                                               ; preds = %34
  %39 = load ptr, ptr %13, align 8
  %40 = getelementptr inbounds %struct.fd_set, ptr %39, i32 0, i32 0
  %41 = load i32, ptr %12, align 4
  %42 = zext i32 %41 to i64
  %43 = getelementptr inbounds [16 x i64], ptr %40, i64 0, i64 %42
  store i64 0, ptr %43, align 8
  br label %44

44:                                               ; preds = %38
  %45 = load i32, ptr %12, align 4
  %46 = add i32 %45, 1
  store i32 %46, ptr %12, align 4
  br label %34

47:                                               ; preds = %34
  br label %48

48:                                               ; preds = %47
  %49 = load i32, ptr %3, align 4
  %50 = srem i32 %49, 64
  %51 = zext i32 %50 to i64
  %52 = shl i64 1, %51
  %53 = getelementptr inbounds %struct.fd_set, ptr %9, i32 0, i32 0
  %54 = load i32, ptr %3, align 4
  %55 = sdiv i32 %54, 64
  %56 = sext i32 %55 to i64
  %57 = getelementptr inbounds [16 x i64], ptr %53, i64 0, i64 %56
  %58 = load i64, ptr %57, align 8
  %59 = or i64 %58, %52
  store i64 %59, ptr %57, align 8
  %60 = load i32, ptr %3, align 4
  %61 = add nsw i32 %60, 1
  %62 = load i64, ptr @readtimeout, align 8
  %63 = icmp ne i64 %62, 0
  br i1 %63, label %64, label %65

64:                                               ; preds = %48
  br label %66

65:                                               ; preds = %48
  br label %66

66:                                               ; preds = %65, %64
  %67 = phi ptr [ %8, %64 ], [ null, %65 ]
  %68 = call i32 @select(i32 noundef %61, ptr noundef %9, ptr noundef null, ptr noundef null, ptr noundef %67)
  store i32 %68, ptr %10, align 4
  %69 = load i32, ptr %10, align 4
  %70 = icmp slt i32 %69, 1
  br i1 %70, label %71, label %80

71:                                               ; preds = %66
  %72 = load i32, ptr %10, align 4
  %73 = icmp ne i32 %72, -1
  br i1 %73, label %78, label %74

74:                                               ; preds = %71
  %75 = call ptr @__errno_location() #9
  %76 = load i32, ptr %75, align 4
  %77 = icmp ne i32 %76, 4
  br i1 %77, label %78, label %79

78:                                               ; preds = %74, %71
  store i64 0, ptr %7, align 8
  br label %79

79:                                               ; preds = %78, %74
  br label %18

80:                                               ; preds = %66
  %81 = load i32, ptr %3, align 4
  %82 = load i32, ptr %11, align 4
  %83 = zext i32 %82 to i64
  %84 = getelementptr inbounds [128 x i8], ptr %4, i64 0, i64 %83
  %85 = load i32, ptr %11, align 4
  %86 = zext i32 %85 to i64
  %87 = sub i64 128, %86
  %88 = call i64 @recv(i32 noundef %81, ptr noundef %84, i64 noundef %87, i32 noundef 0)
  %89 = trunc i64 %88 to i32
  store i32 %89, ptr %10, align 4
  %90 = load i32, ptr %10, align 4
  %91 = icmp ne i32 %90, 0
  br i1 %91, label %96, label %92

92:                                               ; preds = %80
  %93 = call i32 (i32, ptr, ...) @logg(i32 noundef 5, ptr noundef @.str.5)
  %94 = load i32, ptr %3, align 4
  %95 = call i32 @close(i32 noundef %94)
  store ptr null, ptr %2, align 8
  br label %158

96:                                               ; preds = %80
  %97 = load i32, ptr %10, align 4
  %98 = icmp eq i32 %97, -1
  br i1 %98, label %99, label %112

99:                                               ; preds = %96
  %100 = call ptr @__errno_location() #9
  %101 = load i32, ptr %100, align 4
  %102 = icmp eq i32 %101, 11
  br i1 %102, label %103, label %104

103:                                              ; preds = %99
  br label %18

104:                                              ; preds = %99
  %105 = call ptr @__errno_location() #9
  %106 = load i32, ptr %105, align 4
  %107 = getelementptr inbounds [256 x i8], ptr %14, i64 0, i64 0
  %108 = call ptr @cli_strerror(i32 noundef %106, ptr noundef %107, i64 noundef 256)
  %109 = call i32 (i32, ptr, ...) @logg(i32 noundef 5, ptr noundef @.str.6, ptr noundef %108)
  %110 = load i32, ptr %3, align 4
  %111 = call i32 @close(i32 noundef %110)
  store ptr null, ptr %2, align 8
  br label %158

112:                                              ; preds = %96
  %113 = load i32, ptr %10, align 4
  %114 = load i32, ptr %11, align 4
  %115 = add i32 %114, %113
  store i32 %115, ptr %11, align 4
  %116 = load i32, ptr %11, align 4
  %117 = icmp ne i32 %116, 0
  br i1 %117, label %118, label %127

118:                                              ; preds = %112
  %119 = load i32, ptr %11, align 4
  %120 = sub i32 %119, 1
  %121 = zext i32 %120 to i64
  %122 = getelementptr inbounds [128 x i8], ptr %4, i64 0, i64 %121
  %123 = load i8, ptr %122, align 1
  %124 = sext i8 %123 to i32
  %125 = icmp eq i32 %124, 10
  br i1 %125, label %126, label %127

126:                                              ; preds = %118
  br label %136

127:                                              ; preds = %118, %112
  %128 = load i32, ptr %11, align 4
  %129 = zext i32 %128 to i64
  %130 = icmp uge i64 %129, 128
  br i1 %130, label %131, label %135

131:                                              ; preds = %127
  %132 = call i32 (i32, ptr, ...) @logg(i32 noundef 5, ptr noundef @.str.7)
  %133 = load i32, ptr %3, align 4
  %134 = call i32 @close(i32 noundef %133)
  store ptr null, ptr %2, align 8
  br label %158

135:                                              ; preds = %127
  br label %18

136:                                              ; preds = %126
  %137 = load i32, ptr %11, align 4
  %138 = add i32 %137, 1
  %139 = zext i32 %138 to i64
  %140 = call noalias ptr @malloc(i64 noundef %139) #10
  store ptr %140, ptr %5, align 8
  %141 = icmp ne ptr %140, null
  br i1 %141, label %148, label %142

142:                                              ; preds = %136
  %143 = load i32, ptr %11, align 4
  %144 = add i32 %143, 1
  %145 = call i32 (i32, ptr, ...) @logg(i32 noundef 5, ptr noundef @.str.8, i32 noundef %144)
  %146 = load i32, ptr %3, align 4
  %147 = call i32 @close(i32 noundef %146)
  store ptr null, ptr %2, align 8
  br label %158

148:                                              ; preds = %136
  %149 = load ptr, ptr %5, align 8
  %150 = getelementptr inbounds [128 x i8], ptr %4, i64 0, i64 0
  %151 = load i32, ptr %11, align 4
  %152 = zext i32 %151 to i64
  call void @llvm.memcpy.p0.p0.i64(ptr align 1 %149, ptr align 16 %150, i64 %152, i1 false)
  %153 = load ptr, ptr %5, align 8
  %154 = load i32, ptr %11, align 4
  %155 = zext i32 %154 to i64
  %156 = getelementptr inbounds i8, ptr %153, i64 %155
  store i8 0, ptr %156, align 1
  %157 = load ptr, ptr %5, align 8
  store ptr %157, ptr %2, align 8
  br label %158

158:                                              ; preds = %148, %142, %131, %104, %92, %23
  %159 = load ptr, ptr %2, align 8
  ret ptr %159
}