; Function Attrs: nounwind uwtable
define dso_local noalias noundef ptr @nc_recv(i32 noundef %0) local_unnamed_addr #0 {
  %2 = alloca [128 x i8], align 16
  %3 = alloca %struct.timeval, align 8
  %4 = alloca %struct.fd_set, align 8
  %5 = alloca [256 x i8], align 16
  %6 = tail call i64 @time(ptr noundef null) #13
  %7 = load i64, ptr @readtimeout, align 8
  %8 = add nsw i64 %7, %6
  %9 = getelementptr inbounds i8, ptr %3, i64 8
  %10 = srem i32 %0, 64
  %11 = zext nneg i32 %10 to i64
  %12 = shl nuw i64 1, %11
  %13 = sdiv i32 %0, 64
  %14 = sext i32 %13 to i64
  %15 = getelementptr inbounds [16 x i64], ptr %4, i64 0, i64 %14
  %16 = add nsw i32 %0, 1
  br label %.outer.outer

.outer.outer:                                     ; preds = %36, %1
  %.037.ph.ph = phi i64 [ 0, %36 ], [ %8, %1 ]
  %.036.ph.ph = phi i32 [ %.036.ph52, %36 ], [ 0, %1 ]
  br label %.outer

.outer:                                           ; preds = %.outer.outer, %33
  %.036.ph = phi i32 [ %.036.ph52, %33 ], [ %.036.ph.ph, %.outer.outer ]
  br label %.outer51

.outer51:                                         ; preds = %.outer, %59
  %.036.ph52 = phi i32 [ %.036.ph, %.outer ], [ %52, %59 ]
  %17 = zext nneg i32 %.036.ph52 to i64
  %18 = getelementptr inbounds [128 x i8], ptr %2, i64 0, i64 %17
  %19 = sub nuw nsw i64 128, %17
  br label %20

20:                                               ; preds = %.outer51, %43
  %21 = call i64 @time(ptr noundef null) #13
  %.not = icmp slt i64 %21, %.037.ph.ph
  br i1 %.not, label %25, label %22

22:                                               ; preds = %20
  %23 = call i32 (i32, ptr, ...) @logg(i32 noundef 5, ptr noundef nonnull @.str.4) #13
  %24 = call i32 @close(i32 noundef %0) #13
  br label %74

25:                                               ; preds = %20
  %26 = sub nsw i64 %.037.ph.ph, %21
  store i64 %26, ptr %3, align 8
  store i64 0, ptr %9, align 8
  call void @llvm.memset.p0.i64(ptr noundef nonnull align 8 dereferenceable(128) %4, i8 0, i64 128, i1 false)
  %27 = load i64, ptr %15, align 8
  %28 = or i64 %27, %12
  store i64 %28, ptr %15, align 8
  %29 = load i64, ptr @readtimeout, align 8
  %.not45 = icmp eq i64 %29, 0
  %. = select i1 %.not45, ptr null, ptr %3
  %30 = call i32 @select(i32 noundef %16, ptr noundef nonnull %4, ptr noundef null, ptr noundef null, ptr noundef %.) #13
  %31 = icmp slt i32 %30, 1
  br i1 %31, label %32, label %37

32:                                               ; preds = %25
  %.not49 = icmp eq i32 %30, -1
  br i1 %.not49, label %33, label %36

33:                                               ; preds = %32
  %34 = tail call ptr @__errno_location() #14
  %35 = load i32, ptr %34, align 4
  %.not50 = icmp eq i32 %35, 4
  br i1 %.not50, label %.outer, label %36

36:                                               ; preds = %33, %32
  br label %.outer.outer

37:                                               ; preds = %25
  %38 = call i64 @recv(i32 noundef %0, ptr noundef nonnull %18, i64 noundef %19, i32 noundef 0) #13
  %39 = trunc i64 %38 to i32
  switch i32 %39, label %51 [
    i32 0, label %40
    i32 -1, label %43
  ]

40:                                               ; preds = %37
  %41 = call i32 (i32, ptr, ...) @logg(i32 noundef 5, ptr noundef nonnull @.str.5) #13
  %42 = call i32 @close(i32 noundef %0) #13
  br label %74

43:                                               ; preds = %37
  %44 = tail call ptr @__errno_location() #14
  %45 = load i32, ptr %44, align 4
  %46 = icmp eq i32 %45, 11
  br i1 %46, label %20, label %47

47:                                               ; preds = %43
  %48 = call ptr @cli_strerror(i32 noundef %45, ptr noundef nonnull %5, i64 noundef 256) #13
  %49 = call i32 (i32, ptr, ...) @logg(i32 noundef 5, ptr noundef nonnull @.str.6, ptr noundef %48) #13
  %50 = call i32 @close(i32 noundef %0) #13
  br label %74

51:                                               ; preds = %37
  %52 = add i32 %.036.ph52, %39
  %.not47 = icmp eq i32 %52, 0
  br i1 %.not47, label %59, label %53

53:                                               ; preds = %51
  %54 = add i32 %52, -1
  %55 = zext i32 %54 to i64
  %56 = getelementptr inbounds [128 x i8], ptr %2, i64 0, i64 %55
  %57 = load i8, ptr %56, align 1
  %58 = icmp eq i8 %57, 10
  br i1 %58, label %64, label %59

59:                                               ; preds = %53, %51
  %60 = icmp ugt i32 %52, 127
  br i1 %60, label %61, label %.outer51

61:                                               ; preds = %59
  %62 = call i32 (i32, ptr, ...) @logg(i32 noundef 5, ptr noundef nonnull @.str.7) #13
  %63 = call i32 @close(i32 noundef %0) #13
  br label %74

64:                                               ; preds = %53
  %65 = add i32 %52, 1
  %66 = zext i32 %65 to i64
  %67 = call noalias ptr @malloc(i64 noundef %66) #15
  %.not48 = icmp eq ptr %67, null
  br i1 %.not48, label %68, label %71

68:                                               ; preds = %64
  %69 = call i32 (i32, ptr, ...) @logg(i32 noundef 5, ptr noundef nonnull @.str.8, i32 noundef %65) #13
  %70 = call i32 @close(i32 noundef %0) #13
  br label %74

71:                                               ; preds = %64
  %72 = zext i32 %52 to i64
  call void @llvm.memcpy.p0.p0.i64(ptr nonnull align 1 %67, ptr nonnull align 16 %2, i64 %72, i1 false)
  %73 = getelementptr inbounds i8, ptr %67, i64 %72
  store i8 0, ptr %73, align 1
  br label %74

74:                                               ; preds = %71, %68, %61, %47, %40, %22
  %.0 = phi ptr [ null, %22 ], [ null, %47 ], [ %67, %71 ], [ null, %68 ], [ null, %61 ], [ null, %40 ]
  ret ptr %.0
}